target datalayout = "e-m:e-p270:32:32-p271:32:32-p272:64:64-i64:64-i128:128-f80:128-n8:16:32:64-S128"
target triple = "x86_64-pc-linux-gnu"

@.str.360 = private unnamed_addr constant [46 x i8] c"../cpython/Modules/_testlimitedcapi/unicode.c\00", align 1
@.str.367 = private unnamed_addr constant [17 x i8] c"PyErr_Occurred()\00", align 1
@__PRETTY_FUNCTION__.unicode_getlength = private unnamed_addr constant [52 x i8] c"PyObject *unicode_getlength(PyObject *, PyObject *)\00", align 1
@.str.368 = private unnamed_addr constant [18 x i8] c"!PyErr_Occurred()\00", align 1

; Function Attrs: nounwind uwtable
define internal ptr @unicode_getlength(ptr noundef %0, ptr noundef %1) #0 {
  %3 = alloca ptr, align 8
  %4 = alloca ptr, align 8
  %5 = alloca ptr, align 8
  %6 = alloca i64, align 8
  %7 = alloca i32, align 4
  store ptr %0, ptr %4, align 8, !tbaa !3
  store ptr %1, ptr %5, align 8, !tbaa !3
  br label %8

8:                                                ; preds = %2
  %9 = load ptr, ptr %5, align 8, !tbaa !3
  %10 = call ptr @Py_GetConstantBorrowed(i32 noundef 0)
  %11 = icmp eq ptr %9, %10
  br i1 %11, label %12, label %13

12:                                               ; preds = %8
  store ptr null, ptr %5, align 8, !tbaa !3
  br label %13

13:                                               ; preds = %12, %8
  br label %14

14:                                               ; preds = %13
  br label %15

15:                                               ; preds = %14
  call void @llvm.lifetime.start.p0(i64 8, ptr %6) #7
  %16 = load ptr, ptr %5, align 8, !tbaa !3
  %17 = call i64 @PyUnicode_GetLength(ptr noundef %16)
  store i64 %17, ptr %6, align 8, !tbaa !12
  %18 = load i64, ptr %6, align 8, !tbaa !12
  %19 = icmp eq i64 %18, -1
  br i1 %19, label %20, label %27

20:                                               ; preds = %15
  %21 = call ptr @PyErr_Occurred()
  %22 = icmp ne ptr %21, null
  br i1 %22, label %23, label %24

23:                                               ; preds = %20
  br label %26

24:                                               ; preds = %20
  call void @__assert_fail(ptr noundef @.str.367, ptr noundef @.str.360, i32 noundef 292, ptr noundef @__PRETTY_FUNCTION__.unicode_getlength) #8
  unreachable

25:                                               ; No predecessors!
  br label %26

26:                                               ; preds = %25, %23
  store ptr null, ptr %3, align 8
  store i32 1, ptr %7, align 4
  br label %36

27:                                               ; preds = %15
  %28 = call ptr @PyErr_Occurred()
  %29 = icmp ne ptr %28, null
  br i1 %29, label %31, label %30

30:                                               ; preds = %27
  br label %33

31:                                               ; preds = %27
  call void @__assert_fail(ptr noundef @.str.368, ptr noundef @.str.360, i32 noundef 292, ptr noundef @__PRETTY_FUNCTION__.unicode_getlength) #8
  unreachable

32:                                               ; No predecessors!
  br label %33

33:                                               ; preds = %32, %30
  %34 = load i64, ptr %6, align 8, !tbaa !12
  %35 = call ptr @PyLong_FromSsize_t(i64 noundef %34)
  store ptr %35, ptr %3, align 8
  store i32 1, ptr %7, align 4
  br label %36

36:                                               ; preds = %33, %26
  call void @llvm.lifetime.end.p0(i64 8, ptr %6) #7
  br label %37

37:                                               ; preds = %36
  %38 = load ptr, ptr %3, align 8
  ret ptr %38
}