; Function Attrs: nounwind uwtable
define internal ptr @unicode_getlength(ptr readnone captures(none) %0, ptr noundef %1) #0 {
  %3 = tail call ptr @Py_GetConstantBorrowed(i32 noundef 0) #4
  %4 = icmp eq ptr %1, %3
  %spec.select = select i1 %4, ptr null, ptr %1
  %5 = tail call i64 @PyUnicode_GetLength(ptr noundef %spec.select) #4
  %6 = icmp eq i64 %5, -1
  %7 = tail call ptr @PyErr_Occurred() #4
  %.not7 = icmp eq ptr %7, null
  br i1 %6, label %8, label %10

8:                                                ; preds = %2
  br i1 %.not7, label %9, label %14

9:                                                ; preds = %8
  tail call void @__assert_fail(ptr noundef nonnull @.str.367, ptr noundef nonnull @.str.360, i32 noundef 292, ptr noundef nonnull @__PRETTY_FUNCTION__.unicode_getlength) #5
  unreachable

10:                                               ; preds = %2
  br i1 %.not7, label %12, label %11

11:                                               ; preds = %10
  tail call void @__assert_fail(ptr noundef nonnull @.str.368, ptr noundef nonnull @.str.360, i32 noundef 292, ptr noundef nonnull @__PRETTY_FUNCTION__.unicode_getlength) #5
  unreachable

12:                                               ; preds = %10
  %13 = tail call ptr @PyLong_FromSsize_t(i64 noundef %5) #4
  br label %14

14:                                               ; preds = %8, %12
  %.0 = phi ptr [ %13, %12 ], [ null, %8 ]
  ret ptr %.0
}